target datalayout = "e-m:e-p270:32:32-p271:32:32-p272:64:64-i64:64-i128:128-f80:128-n8:16:32:64-S128"
target triple = "x86_64-pc-linux-gnu"

%struct.LOCKTAG = type { i32, i32, i32, i16, i8, i8 }

@speculativeInsertionToken = internal global i32 0, align 4

; Function Attrs: nounwind uwtable
define dso_local i32 @SpeculativeInsertionLockAcquire(i32 noundef %0) #0 {
  %2 = alloca i32, align 4
  %3 = alloca %struct.LOCKTAG, align 4
  store i32 %0, ptr %2, align 4
  call void @llvm.lifetime.start.p0(i64 16, ptr %3) #6
  %4 = load i32, ptr @speculativeInsertionToken, align 4
  %5 = add i32 %4, 1
  store i32 %5, ptr @speculativeInsertionToken, align 4
  %6 = load i32, ptr @speculativeInsertionToken, align 4
  %7 = icmp eq i32 %6, 0
  br i1 %7, label %8, label %9

8:                                                ; preds = %1
  store i32 1, ptr @speculativeInsertionToken, align 4
  br label %9

9:                                                ; preds = %8, %1
  %10 = load i32, ptr %2, align 4
  %11 = getelementptr inbounds nuw %struct.LOCKTAG, ptr %3, i32 0, i32 0
  store i32 %10, ptr %11, align 4
  %12 = load i32, ptr @speculativeInsertionToken, align 4
  %13 = getelementptr inbounds nuw %struct.LOCKTAG, ptr %3, i32 0, i32 1
  store i32 %12, ptr %13, align 4
  %14 = getelementptr inbounds nuw %struct.LOCKTAG, ptr %3, i32 0, i32 2
  store i32 0, ptr %14, align 4
  %15 = getelementptr inbounds nuw %struct.LOCKTAG, ptr %3, i32 0, i32 3
  store i16 0, ptr %15, align 4
  %16 = getelementptr inbounds nuw %struct.LOCKTAG, ptr %3, i32 0, i32 4
  store i8 7, ptr %16, align 2
  %17 = getelementptr inbounds nuw %struct.LOCKTAG, ptr %3, i32 0, i32 5
  store i8 1, ptr %17, align 1
  %18 = call i32 @LockAcquire(ptr noundef %3, i32 noundef 7, i1 noundef zeroext false, i1 noundef zeroext false)
  %19 = load i32, ptr @speculativeInsertionToken, align 4
  call void @llvm.lifetime.end.p0(i64 16, ptr %3) #6
  ret i32 %19
}