; Function Attrs: nounwind uwtable
define dso_local i32 @SpeculativeInsertionLockAcquire(i32 noundef %0) local_unnamed_addr #1 {
  %2 = alloca %struct.LOCKTAG, align 4
  call void @llvm.lifetime.start.p0(i64 16, ptr nonnull %2) #8
  %3 = load i32, ptr @speculativeInsertionToken, align 4
  %4 = add i32 %3, 1
  %spec.store.select = tail call i32 @llvm.umax.i32(i32 %4, i32 1)
  store i32 %spec.store.select, ptr @speculativeInsertionToken, align 4
  store i32 %0, ptr %2, align 4
  %5 = getelementptr inbounds nuw i8, ptr %2, i64 4
  store i32 %spec.store.select, ptr %5, align 4
  %6 = getelementptr inbounds nuw i8, ptr %2, i64 8
  store i32 0, ptr %6, align 4
  %7 = getelementptr inbounds nuw i8, ptr %2, i64 12
  store i16 0, ptr %7, align 4
  %8 = getelementptr inbounds nuw i8, ptr %2, i64 14
  store i8 7, ptr %8, align 2
  %9 = getelementptr inbounds nuw i8, ptr %2, i64 15
  store i8 1, ptr %9, align 1
  %10 = call i32 @LockAcquire(ptr noundef nonnull %2, i32 noundef 7, i1 noundef zeroext false, i1 noundef zeroext false) #8
  %11 = load i32, ptr @speculativeInsertionToken, align 4
  call void @llvm.lifetime.end.p0(i64 16, ptr nonnull %2) #8
  ret i32 %11
}